; ModuleID = '23/935.c'
source_filename = "23/935.c"
target datalayout = "e-m:e-p270:32:32-p271:32:32-p272:64:64-i64:64-f80:128-n8:16:32:64-S128"
target triple = "x86_64-pc-linux-gnu"

@.str = private unnamed_addr constant [3 x i8] c"%s\00", align 1
@.str.1 = private unnamed_addr constant [4 x i8] c" %s\00", align 1

; Function Attrs: noinline nounwind uwtable
define dso_local void @main() #0 {
  %1 = alloca [100 x i8*], align 16
  %2 = alloca [100 x [100 x i8]], align 16
  %3 = alloca i8, align 1
  %4 = alloca i32, align 4
  %5 = alloca i32, align 4
  store i32 0, i32* %4, align 4
  br label %6

6:                                                ; preds = %19, %0
  %7 = load i32, i32* %4, align 4
  %8 = icmp slt i32 %7, 100
  br i1 %8, label %9, label %22

9:                                                ; preds = %6
  %10 = getelementptr inbounds [100 x [100 x i8]], [100 x [100 x i8]]* %2, i64 0, i64 0
  %11 = load i32, i32* %4, align 4
  %12 = sext i32 %11 to i64
  %13 = getelementptr inbounds [100 x i8], [100 x i8]* %10, i64 %12
  %14 = getelementptr inbounds [100 x i8], [100 x i8]* %13, i64 0, i64 0
  %15 = getelementptr inbounds [100 x i8*], [100 x i8*]* %1, i64 0, i64 0
  %16 = load i32, i32* %4, align 4
  %17 = sext i32 %16 to i64
  %18 = getelementptr inbounds i8*, i8** %15, i64 %17
  store i8* %14, i8** %18, align 8
  br label %19

19:                                               ; preds = %9
  %20 = load i32, i32* %4, align 4
  %21 = add nsw i32 %20, 1
  store i32 %21, i32* %4, align 4
  br label %6

22:                                               ; preds = %6
  store i32 0, i32* %4, align 4
  br label %23

23:                                               ; preds = %37, %22
  %24 = getelementptr inbounds [100 x i8*], [100 x i8*]* %1, i64 0, i64 0
  %25 = load i32, i32* %4, align 4
  %26 = sext i32 %25 to i64
  %27 = getelementptr inbounds i8*, i8** %24, i64 %26
  %28 = load i8*, i8** %27, align 8
  %29 = call i32 (i8*, ...) @__isoc99_scanf(i8* getelementptr inbounds ([3 x i8], [3 x i8]* @.str, i64 0, i64 0), i8* %28)
  %30 = call i32 @getchar()
  %31 = icmp eq i32 %30, 10
  %32 = zext i1 %31 to i32
  %33 = trunc i32 %32 to i8
  store i8 %33, i8* %3, align 1
  %34 = icmp ne i8 %33, 0
  br i1 %34, label %35, label %36

35:                                               ; preds = %23
  br label %40

36:                                               ; preds = %23
  br label %37

37:                                               ; preds = %36
  %38 = load i32, i32* %4, align 4
  %39 = add nsw i32 %38, 1
  store i32 %39, i32* %4, align 4
  br label %23

40:                                               ; preds = %35
  %41 = getelementptr inbounds [100 x i8*], [100 x i8*]* %1, i64 0, i64 0
  %42 = load i32, i32* %4, align 4
  %43 = sext i32 %42 to i64
  %44 = getelementptr inbounds i8*, i8** %41, i64 %43
  %45 = load i8*, i8** %44, align 8
  %46 = call i32 (i8*, ...) @printf(i8* getelementptr inbounds ([3 x i8], [3 x i8]* @.str, i64 0, i64 0), i8* %45)
  %47 = load i32, i32* %4, align 4
  %48 = sub nsw i32 %47, 1
  store i32 %48, i32* %5, align 4
  br label %49

49:                                               ; preds = %59, %40
  %50 = load i32, i32* %5, align 4
  %51 = icmp sge i32 %50, 0
  br i1 %51, label %52, label %62

52:                                               ; preds = %49
  %53 = getelementptr inbounds [100 x i8*], [100 x i8*]* %1, i64 0, i64 0
  %54 = load i32, i32* %5, align 4
  %55 = sext i32 %54 to i64
  %56 = getelementptr inbounds i8*, i8** %53, i64 %55
  %57 = load i8*, i8** %56, align 8
  %58 = call i32 (i8*, ...) @printf(i8* getelementptr inbounds ([4 x i8], [4 x i8]* @.str.1, i64 0, i64 0), i8* %57)
  br label %59

59:                                               ; preds = %52
  %60 = load i32, i32* %5, align 4
  %61 = add nsw i32 %60, -1
  store i32 %61, i32* %5, align 4
  br label %49

62:                                               ; preds = %49
  ret void
}

declare dso_local i32 @__isoc99_scanf(i8*, ...) #1

declare dso_local i32 @getchar() #1

declare dso_local i32 @printf(i8*, ...) #1


!llvm.module.flags = !{!0}
!llvm.ident = !{!1}

!0 = !{i32 1, !"wchar_size", i32 4}
!1 = !{!"clang version 10.0.0-4ubuntu1 "}
